target datalayout = "e-m:e-p270:32:32-p271:32:32-p272:64:64-i64:64-i128:128-f80:128-n8:16:32:64-S128"
target triple = "x86_64-pc-linux-gnu"

%struct.__loadu_si128 = type { <2 x i64> }
%struct.__storeu_si128 = type { <2 x i64> }

@VP8LPredictorsSub_C = external global [16 x ptr], align 16

; Function Attrs: alwaysinline nounwind uwtable
define internal <2 x i64> @_mm_set_epi32(i32 noundef %0, i32 noundef %1, i32 noundef %2, i32 noundef %3) #3 {
  %5 = alloca i32, align 4
  %6 = alloca i32, align 4
  %7 = alloca i32, align 4
  %8 = alloca i32, align 4
  %9 = alloca <4 x i32>, align 16
  store i32 %0, ptr %5, align 4, !tbaa !9
  store i32 %1, ptr %6, align 4, !tbaa !9
  store i32 %2, ptr %7, align 4, !tbaa !9
  store i32 %3, ptr %8, align 4, !tbaa !9
  %10 = load i32, ptr %8, align 4, !tbaa !9
  %11 = insertelement <4 x i32> poison, i32 %10, i32 0
  %12 = load i32, ptr %7, align 4, !tbaa !9
  %13 = insertelement <4 x i32> %11, i32 %12, i32 1
  %14 = load i32, ptr %6, align 4, !tbaa !9
  %15 = insertelement <4 x i32> %13, i32 %14, i32 2
  %16 = load i32, ptr %5, align 4, !tbaa !9
  %17 = insertelement <4 x i32> %15, i32 %16, i32 3
  store <4 x i32> %17, ptr %9, align 16, !tbaa !11
  %18 = load <4 x i32>, ptr %9, align 16, !tbaa !11
  %19 = bitcast <4 x i32> %18 to <2 x i64>
  ret <2 x i64> %19
}

; Function Attrs: alwaysinline nounwind uwtable
define internal void @_mm_storeu_si128(ptr noundef %0, <2 x i64> noundef %1) #3 {
  %3 = alloca ptr, align 8
  %4 = alloca <2 x i64>, align 16
  store ptr %0, ptr %3, align 8, !tbaa !3
  store <2 x i64> %1, ptr %4, align 16, !tbaa !11
  %5 = load <2 x i64>, ptr %4, align 16, !tbaa !11
  %6 = load ptr, ptr %3, align 8, !tbaa !3
  %7 = getelementptr inbounds nuw %struct.__storeu_si128, ptr %6, i32 0, i32 0
  store <2 x i64> %5, ptr %7, align 1, !tbaa !11
  ret void
}

; Function Attrs: alwaysinline nounwind uwtable
define internal <2 x i64> @_mm_sub_epi8(<2 x i64> noundef %0, <2 x i64> noundef %1) #3 {
  %3 = alloca <2 x i64>, align 16
  %4 = alloca <2 x i64>, align 16
  store <2 x i64> %0, ptr %3, align 16, !tbaa !11
  store <2 x i64> %1, ptr %4, align 16, !tbaa !11
  %5 = load <2 x i64>, ptr %3, align 16, !tbaa !11
  %6 = bitcast <2 x i64> %5 to <16 x i8>
  %7 = load <2 x i64>, ptr %4, align 16, !tbaa !11
  %8 = bitcast <2 x i64> %7 to <16 x i8>
  %9 = sub <16 x i8> %6, %8
  %10 = bitcast <16 x i8> %9 to <2 x i64>
  ret <2 x i64> %10
}

; Function Attrs: alwaysinline nounwind uwtable
define internal <2 x i64> @_mm_loadu_si128(ptr noundef %0) #3 {
  %2 = alloca ptr, align 8
  store ptr %0, ptr %2, align 8, !tbaa !3
  %3 = load ptr, ptr %2, align 8, !tbaa !3
  %4 = getelementptr inbounds nuw %struct.__loadu_si128, ptr %3, i32 0, i32 0
  %5 = load <2 x i64>, ptr %4, align 1, !tbaa !11
  ret <2 x i64> %5
}

; Function Attrs: alwaysinline nounwind uwtable
define internal <2 x i64> @_mm_set1_epi32(i32 noundef %0) #3 {
  %2 = alloca i32, align 4
  store i32 %0, ptr %2, align 4, !tbaa !9
  %3 = load i32, ptr %2, align 4, !tbaa !9
  %4 = load i32, ptr %2, align 4, !tbaa !9
  %5 = load i32, ptr %2, align 4, !tbaa !9
  %6 = load i32, ptr %2, align 4, !tbaa !9
  %7 = call <2 x i64> @_mm_set_epi32(i32 noundef %3, i32 noundef %4, i32 noundef %5, i32 noundef %6)
  ret <2 x i64> %7
}

; Function Attrs: nounwind uwtable
define internal void @PredictorSub0_SSE2(ptr noundef %0, ptr noundef %1, i32 noundef %2, ptr noalias noundef %3) #1 {
  %5 = alloca ptr, align 8
  %6 = alloca ptr, align 8
  %7 = alloca i32, align 4
  %8 = alloca ptr, align 8
  %9 = alloca i32, align 4
  %10 = alloca <2 x i64>, align 16
  %11 = alloca <2 x i64>, align 16
  %12 = alloca <2 x i64>, align 16
  store ptr %0, ptr %5, align 8, !tbaa !7
  store ptr %1, ptr %6, align 8, !tbaa !7
  store i32 %2, ptr %7, align 4, !tbaa !9
  store ptr %3, ptr %8, align 8, !tbaa !7
  call void @llvm.lifetime.start.p0(i64 4, ptr %9) #9
  call void @llvm.lifetime.start.p0(i64 16, ptr %10) #9
  %13 = call <2 x i64> @_mm_set1_epi32(i32 noundef -16777216)
  store <2 x i64> %13, ptr %10, align 16, !tbaa !11
  store i32 0, ptr %9, align 4, !tbaa !9
  br label %14

14:                                               ; preds = %33, %4
  %15 = load i32, ptr %9, align 4, !tbaa !9
  %16 = add nsw i32 %15, 4
  %17 = load i32, ptr %7, align 4, !tbaa !9
  %18 = icmp sle i32 %16, %17
  br i1 %18, label %19, label %36

19:                                               ; preds = %14
  call void @llvm.lifetime.start.p0(i64 16, ptr %11) #9
  %20 = load ptr, ptr %5, align 8, !tbaa !7
  %21 = load i32, ptr %9, align 4, !tbaa !9
  %22 = sext i32 %21 to i64
  %23 = getelementptr inbounds i32, ptr %20, i64 %22
  %24 = call <2 x i64> @_mm_loadu_si128(ptr noundef %23)
  store <2 x i64> %24, ptr %11, align 16, !tbaa !11
  call void @llvm.lifetime.start.p0(i64 16, ptr %12) #9
  %25 = load <2 x i64>, ptr %11, align 16, !tbaa !11
  %26 = load <2 x i64>, ptr %10, align 16, !tbaa !11
  %27 = call <2 x i64> @_mm_sub_epi8(<2 x i64> noundef %25, <2 x i64> noundef %26)
  store <2 x i64> %27, ptr %12, align 16, !tbaa !11
  %28 = load ptr, ptr %8, align 8, !tbaa !7
  %29 = load i32, ptr %9, align 4, !tbaa !9
  %30 = sext i32 %29 to i64
  %31 = getelementptr inbounds i32, ptr %28, i64 %30
  %32 = load <2 x i64>, ptr %12, align 16, !tbaa !11
  call void @_mm_storeu_si128(ptr noundef %31, <2 x i64> noundef %32)
  call void @llvm.lifetime.end.p0(i64 16, ptr %12) #9
  call void @llvm.lifetime.end.p0(i64 16, ptr %11) #9
  br label %33

33:                                               ; preds = %19
  %34 = load i32, ptr %9, align 4, !tbaa !9
  %35 = add nsw i32 %34, 4
  store i32 %35, ptr %9, align 4, !tbaa !9
  br label %14, !llvm.loop !41

36:                                               ; preds = %14
  %37 = load i32, ptr %9, align 4, !tbaa !9
  %38 = load i32, ptr %7, align 4, !tbaa !9
  %39 = icmp ne i32 %37, %38
  br i1 %39, label %40, label %53

40:                                               ; preds = %36
  %41 = load ptr, ptr @VP8LPredictorsSub_C, align 16, !tbaa !3
  %42 = load ptr, ptr %5, align 8, !tbaa !7
  %43 = load i32, ptr %9, align 4, !tbaa !9
  %44 = sext i32 %43 to i64
  %45 = getelementptr inbounds i32, ptr %42, i64 %44
  %46 = load i32, ptr %7, align 4, !tbaa !9
  %47 = load i32, ptr %9, align 4, !tbaa !9
  %48 = sub nsw i32 %46, %47
  %49 = load ptr, ptr %8, align 8, !tbaa !7
  %50 = load i32, ptr %9, align 4, !tbaa !9
  %51 = sext i32 %50 to i64
  %52 = getelementptr inbounds i32, ptr %49, i64 %51
  call void %41(ptr noundef %45, ptr noundef null, i32 noundef %48, ptr noundef %52)
  br label %53

53:                                               ; preds = %40, %36
  call void @llvm.lifetime.end.p0(i64 16, ptr %10) #9
  call void @llvm.lifetime.end.p0(i64 4, ptr %9) #9
  ret void
}