; Function Attrs: nounwind uwtable
define internal void @PredictorSub0_SSE2(ptr noundef %0, ptr readnone captures(none) %1, i32 noundef %2, ptr noalias noundef %3) #1 {
  %.not20 = icmp slt i32 %2, 4
  br i1 %.not20, label %._crit_edge, label %.lr.ph.preheader

.lr.ph.preheader:                                 ; preds = %4
  %5 = zext nneg i32 %2 to i64
  br label %.lr.ph

.lr.ph:                                           ; preds = %.lr.ph.preheader, %.lr.ph
  %indvars.iv22 = phi i64 [ 0, %.lr.ph.preheader ], [ %indvars.iv.next23, %.lr.ph ]
  %indvars.iv = phi i64 [ 4, %.lr.ph.preheader ], [ %indvars.iv.next, %.lr.ph ]
  %6 = getelementptr inbounds nuw i32, ptr %0, i64 %indvars.iv22
  %7 = load <16 x i8>, ptr %6, align 1, !tbaa !7
  %8 = add <16 x i8> %7, <i8 0, i8 0, i8 0, i8 1, i8 0, i8 0, i8 0, i8 1, i8 0, i8 0, i8 0, i8 1, i8 0, i8 0, i8 0, i8 1>
  %9 = getelementptr inbounds nuw i32, ptr %3, i64 %indvars.iv22
  store <16 x i8> %8, ptr %9, align 1, !tbaa !7
  %indvars.iv.next = add nuw nsw i64 %indvars.iv, 4
  %.not = icmp samesign ugt i64 %indvars.iv.next, %5
  %indvars.iv.next23 = add nuw nsw i64 %indvars.iv22, 4
  br i1 %.not, label %._crit_edge.loopexit, label %.lr.ph, !llvm.loop !37

._crit_edge.loopexit:                             ; preds = %.lr.ph
  %10 = trunc nuw nsw i64 %indvars.iv to i32
  br label %._crit_edge

._crit_edge:                                      ; preds = %._crit_edge.loopexit, %4
  %.0.lcssa = phi i32 [ 0, %4 ], [ %10, %._crit_edge.loopexit ]
  %.not19 = icmp eq i32 %.0.lcssa, %2
  br i1 %.not19, label %17, label %11

11:                                               ; preds = %._crit_edge
  %12 = load ptr, ptr @VP8LPredictorsSub_C, align 16, !tbaa !3
  %13 = zext nneg i32 %.0.lcssa to i64
  %14 = getelementptr inbounds nuw i32, ptr %0, i64 %13
  %15 = sub nsw i32 %2, %.0.lcssa
  %16 = getelementptr inbounds nuw i32, ptr %3, i64 %13
  tail call void %12(ptr noundef %14, ptr noundef null, i32 noundef %15, ptr noundef %16) #8
  br label %17

17:                                               ; preds = %11, %._crit_edge
  ret void
}